target datalayout = "e-m:e-p270:32:32-p271:32:32-p272:64:64-i64:64-i128:128-f80:128-n8:16:32:64-S128"
target triple = "x86_64-pc-linux-gnu"

%struct.stat = type { i64, i64, i64, i32, i32, i32, i32, i64, i64, i64, i64, %struct.timespec, %struct.timespec, %struct.timespec, [3 x i64] }
%struct.timespec = type { i64, i64 }

@.str.12 = private unnamed_addr constant [4 x i8] c"/%s\00", align 1
@.str.13 = private unnamed_addr constant [4 x i8] c"UTC\00", align 1
@.str.14 = private unnamed_addr constant [8 x i8] c"Etc/UTC\00", align 1
@.str.15 = private unnamed_addr constant [10 x i8] c"localtime\00", align 1
@.str.16 = private unnamed_addr constant [11 x i8] c"posixrules\00", align 1

; Function Attrs: nounwind uwtable
define internal i32 @zone_name_pref(ptr noundef %0) #0 {
  %2 = alloca i32, align 4
  %3 = alloca ptr, align 8
  store ptr %0, ptr %3, align 8
  %4 = load ptr, ptr %3, align 8
  %5 = call i32 @strcmp(ptr noundef %4, ptr noundef @.str.13) #7
  %6 = icmp eq i32 %5, 0
  br i1 %6, label %7, label %8

7:                                                ; preds = %1
  store i32 50, ptr %2, align 4
  br label %23

8:                                                ; preds = %1
  %9 = load ptr, ptr %3, align 8
  %10 = call i32 @strcmp(ptr noundef %9, ptr noundef @.str.14) #7
  %11 = icmp eq i32 %10, 0
  br i1 %11, label %12, label %13

12:                                               ; preds = %8
  store i32 40, ptr %2, align 4
  br label %23

13:                                               ; preds = %8
  %14 = load ptr, ptr %3, align 8
  %15 = call i32 @strcmp(ptr noundef %14, ptr noundef @.str.15) #7
  %16 = icmp eq i32 %15, 0
  br i1 %16, label %21, label %17

17:                                               ; preds = %13
  %18 = load ptr, ptr %3, align 8
  %19 = call i32 @strcmp(ptr noundef %18, ptr noundef @.str.16) #7
  %20 = icmp eq i32 %19, 0
  br i1 %20, label %21, label %22

21:                                               ; preds = %17, %13
  store i32 -50, ptr %2, align 4
  br label %23

22:                                               ; preds = %17
  store i32 0, ptr %2, align 4
  br label %23

23:                                               ; preds = %22, %21, %12, %7
  %24 = load i32, ptr %2, align 4
  ret i32 %24
}

; Function Attrs: nounwind uwtable
define internal void @scan_available_timezones(ptr noundef %0, ptr noundef %1, ptr noundef %2, ptr noundef %3, ptr noundef %4) #0 {
  %6 = alloca ptr, align 8
  %7 = alloca ptr, align 8
  %8 = alloca ptr, align 8
  %9 = alloca ptr, align 8
  %10 = alloca ptr, align 8
  %11 = alloca i32, align 4
  %12 = alloca ptr, align 8
  %13 = alloca ptr, align 8
  %14 = alloca i32, align 4
  %15 = alloca ptr, align 8
  %16 = alloca %struct.stat, align 8
  %17 = alloca i32, align 4
  %18 = alloca i32, align 4
  store ptr %0, ptr %6, align 8
  store ptr %1, ptr %7, align 8
  store ptr %2, ptr %8, align 8
  store ptr %3, ptr %9, align 8
  store ptr %4, ptr %10, align 8
  call void @llvm.lifetime.start.p0(i64 4, ptr %11) #6
  %19 = load ptr, ptr %6, align 8
  %20 = call i64 @strlen(ptr noundef %19) #7
  %21 = trunc i64 %20 to i32
  store i32 %21, ptr %11, align 4
  call void @llvm.lifetime.start.p0(i64 8, ptr %12) #6
  call void @llvm.lifetime.start.p0(i64 8, ptr %13) #6
  %22 = load ptr, ptr %6, align 8
  %23 = call ptr @pgfnames(ptr noundef %22)
  store ptr %23, ptr %12, align 8
  %24 = load ptr, ptr %12, align 8
  %25 = icmp ne ptr %24, null
  br i1 %25, label %27, label %26

26:                                               ; preds = %5
  store i32 1, ptr %14, align 4
  br label %138

27:                                               ; preds = %5
  %28 = load ptr, ptr %12, align 8
  store ptr %28, ptr %13, align 8
  br label %29

29:                                               ; preds = %133, %27
  %30 = load ptr, ptr %13, align 8
  %31 = load ptr, ptr %30, align 8
  %32 = icmp ne ptr %31, null
  br i1 %32, label %33, label %136

33:                                               ; preds = %29
  call void @llvm.lifetime.start.p0(i64 8, ptr %15) #6
  %34 = load ptr, ptr %13, align 8
  %35 = load ptr, ptr %34, align 8
  store ptr %35, ptr %15, align 8
  call void @llvm.lifetime.start.p0(i64 144, ptr %16) #6
  %36 = load ptr, ptr %15, align 8
  %37 = getelementptr inbounds i8, ptr %36, i64 0
  %38 = load i8, ptr %37, align 1
  %39 = sext i8 %38 to i32
  %40 = icmp eq i32 %39, 46
  br i1 %40, label %41, label %42

41:                                               ; preds = %33
  store i32 4, ptr %14, align 4
  br label %130

42:                                               ; preds = %33
  %43 = load ptr, ptr %6, align 8
  %44 = load i32, ptr %11, align 4
  %45 = sext i32 %44 to i64
  %46 = getelementptr inbounds i8, ptr %43, i64 %45
  %47 = load i32, ptr %11, align 4
  %48 = sub i32 1024, %47
  %49 = sext i32 %48 to i64
  %50 = load ptr, ptr %15, align 8
  %51 = call i32 (ptr, i64, ptr, ...) @pg_snprintf(ptr noundef %46, i64 noundef %49, ptr noundef @.str.12, ptr noundef %50)
  %52 = load ptr, ptr %6, align 8
  %53 = call i32 @stat(ptr noundef %52, ptr noundef %16) #6
  %54 = icmp ne i32 %53, 0
  br i1 %54, label %55, label %60

55:                                               ; preds = %42
  %56 = load ptr, ptr %6, align 8
  %57 = load i32, ptr %11, align 4
  %58 = sext i32 %57 to i64
  %59 = getelementptr inbounds i8, ptr %56, i64 %58
  store i8 0, ptr %59, align 1
  store i32 4, ptr %14, align 4
  br label %130

60:                                               ; preds = %42
  %61 = getelementptr inbounds nuw %struct.stat, ptr %16, i32 0, i32 3
  %62 = load i32, ptr %61, align 8
  %63 = and i32 %62, 61440
  %64 = icmp eq i32 %63, 16384
  br i1 %64, label %65, label %71

65:                                               ; preds = %60
  %66 = load ptr, ptr %6, align 8
  %67 = load ptr, ptr %7, align 8
  %68 = load ptr, ptr %8, align 8
  %69 = load ptr, ptr %9, align 8
  %70 = load ptr, ptr %10, align 8
  call void @scan_available_timezones(ptr noundef %66, ptr noundef %67, ptr noundef %68, ptr noundef %69, ptr noundef %70)
  br label %125

71:                                               ; preds = %60
  call void @llvm.lifetime.start.p0(i64 4, ptr %17) #6
  %72 = load ptr, ptr %7, align 8
  %73 = load ptr, ptr %8, align 8
  %74 = call i32 @score_timezone(ptr noundef %72, ptr noundef %73)
  store i32 %74, ptr %17, align 4
  %75 = load i32, ptr %17, align 4
  %76 = load ptr, ptr %9, align 8
  %77 = load i32, ptr %76, align 4
  %78 = icmp sgt i32 %75, %77
  br i1 %78, label %79, label %85

79:                                               ; preds = %71
  %80 = load i32, ptr %17, align 4
  %81 = load ptr, ptr %9, align 8
  store i32 %80, ptr %81, align 4
  %82 = load ptr, ptr %10, align 8
  %83 = load ptr, ptr %7, align 8
  %84 = call i64 @strlcpy(ptr noundef %82, ptr noundef %83, i64 noundef 256)
  br label %124

85:                                               ; preds = %71
  %86 = load i32, ptr %17, align 4
  %87 = load ptr, ptr %9, align 8
  %88 = load i32, ptr %87, align 4
  %89 = icmp eq i32 %86, %88
  br i1 %89, label %90, label %123

90:                                               ; preds = %85
  call void @llvm.lifetime.start.p0(i64 4, ptr %18) #6
  %91 = load ptr, ptr %7, align 8
  %92 = call i32 @zone_name_pref(ptr noundef %91)
  %93 = load ptr, ptr %10, align 8
  %94 = call i32 @zone_name_pref(ptr noundef %93)
  %95 = sub i32 %92, %94
  store i32 %95, ptr %18, align 4
  %96 = load i32, ptr %18, align 4
  %97 = icmp sgt i32 %96, 0
  br i1 %97, label %118, label %98

98:                                               ; preds = %90
  %99 = load i32, ptr %18, align 4
  %100 = icmp eq i32 %99, 0
  br i1 %100, label %101, label %122

101:                                              ; preds = %98
  %102 = load ptr, ptr %7, align 8
  %103 = call i64 @strlen(ptr noundef %102) #7
  %104 = load ptr, ptr %10, align 8
  %105 = call i64 @strlen(ptr noundef %104) #7
  %106 = icmp ult i64 %103, %105
  br i1 %106, label %118, label %107

107:                                              ; preds = %101
  %108 = load ptr, ptr %7, align 8
  %109 = call i64 @strlen(ptr noundef %108) #7
  %110 = load ptr, ptr %10, align 8
  %111 = call i64 @strlen(ptr noundef %110) #7
  %112 = icmp eq i64 %109, %111
  br i1 %112, label %113, label %122

113:                                              ; preds = %107
  %114 = load ptr, ptr %7, align 8
  %115 = load ptr, ptr %10, align 8
  %116 = call i32 @strcmp(ptr noundef %114, ptr noundef %115) #7
  %117 = icmp slt i32 %116, 0
  br i1 %117, label %118, label %122

118:                                              ; preds = %113, %101, %90
  %119 = load ptr, ptr %10, align 8
  %120 = load ptr, ptr %7, align 8
  %121 = call i64 @strlcpy(ptr noundef %119, ptr noundef %120, i64 noundef 256)
  br label %122

122:                                              ; preds = %118, %113, %107, %98
  call void @llvm.lifetime.end.p0(i64 4, ptr %18) #6
  br label %123

123:                                              ; preds = %122, %85
  br label %124

124:                                              ; preds = %123, %79
  call void @llvm.lifetime.end.p0(i64 4, ptr %17) #6
  br label %125

125:                                              ; preds = %124, %65
  %126 = load ptr, ptr %6, align 8
  %127 = load i32, ptr %11, align 4
  %128 = sext i32 %127 to i64
  %129 = getelementptr inbounds i8, ptr %126, i64 %128
  store i8 0, ptr %129, align 1
  store i32 0, ptr %14, align 4
  br label %130

130:                                              ; preds = %125, %55, %41
  call void @llvm.lifetime.end.p0(i64 144, ptr %16) #6
  call void @llvm.lifetime.end.p0(i64 8, ptr %15) #6
  %131 = load i32, ptr %14, align 4
  switch i32 %131, label %141 [
    i32 0, label %132
    i32 4, label %133
  ]

132:                                              ; preds = %130
  br label %133

133:                                              ; preds = %132, %130
  %134 = load ptr, ptr %13, align 8
  %135 = getelementptr inbounds nuw ptr, ptr %134, i32 1
  store ptr %135, ptr %13, align 8
  br label %29, !llvm.loop !9

136:                                              ; preds = %29
  %137 = load ptr, ptr %12, align 8
  call void @pgfnames_cleanup(ptr noundef %137)
  store i32 0, ptr %14, align 4
  br label %138

138:                                              ; preds = %136, %26
  call void @llvm.lifetime.end.p0(i64 8, ptr %13) #6
  call void @llvm.lifetime.end.p0(i64 8, ptr %12) #6
  call void @llvm.lifetime.end.p0(i64 4, ptr %11) #6
  %139 = load i32, ptr %14, align 4
  switch i32 %139, label %141 [
    i32 0, label %140
    i32 1, label %140
  ]

140:                                              ; preds = %138, %138
  ret void

141:                                              ; preds = %138, %130
  unreachable
}