; Function Attrs: nounwind uwtable
define internal fastcc void @scan_available_timezones(ptr noundef nonnull %0, ptr noundef nonnull %1, ptr noundef nonnull %2, ptr noundef nonnull captures(none) %3) unnamed_addr #5 {
  %5 = alloca %struct.stat, align 8
  %6 = tail call i64 @strlen(ptr noundef nonnull dereferenceable(1) %0) #14
  %7 = tail call ptr @pgfnames(ptr noundef nonnull %0) #13
  %.not = icmp eq ptr %7, null
  br i1 %.not, label %67, label %.preheader

.preheader:                                       ; preds = %4
  %8 = load ptr, ptr %7, align 8
  %.not517 = icmp eq ptr %8, null
  br i1 %.not517, label %._crit_edge, label %.lr.ph

.lr.ph:                                           ; preds = %.preheader
  %sext = shl i64 %6, 32
  %9 = ashr exact i64 %sext, 32
  %10 = getelementptr inbounds i8, ptr %0, i64 %9
  %sext52 = sub i64 4398046511104, %sext
  %11 = ashr exact i64 %sext52, 32
  %12 = getelementptr inbounds nuw i8, ptr %5, i64 24
  br label %13

13:                                               ; preds = %.lr.ph, %64
  %14 = phi ptr [ %8, %.lr.ph ], [ %66, %64 ]
  %.08 = phi ptr [ %7, %.lr.ph ], [ %65, %64 ]
  call void @llvm.lifetime.start.p0(i64 144, ptr nonnull %5) #13
  %15 = load i8, ptr %14, align 1
  %16 = icmp eq i8 %15, 46
  br i1 %16, label %64, label %17

17:                                               ; preds = %13
  %18 = tail call i32 (ptr, i64, ptr, ...) @pg_snprintf(ptr noundef nonnull %10, i64 noundef %11, ptr noundef nonnull @.str.12, ptr noundef nonnull %14) #13
  %19 = call i32 @stat(ptr noundef nonnull %0, ptr noundef nonnull %5) #13
  %.not53 = icmp eq i32 %19, 0
  br i1 %.not53, label %20, label %.sink.split

20:                                               ; preds = %17
  %21 = load i32, ptr %12, align 8
  %22 = and i32 %21, 61440
  %23 = icmp eq i32 %22, 16384
  br i1 %23, label %24, label %25

24:                                               ; preds = %20
  tail call fastcc void @scan_available_timezones(ptr noundef %0, ptr noundef %1, ptr noundef %2, ptr noundef %3)
  br label %.sink.split

25:                                               ; preds = %20
  %26 = tail call fastcc i32 @score_timezone(ptr noundef nonnull %1, ptr noundef %2)
  %27 = load i32, ptr %3, align 4
  %28 = icmp sgt i32 %26, %27
  br i1 %28, label %29, label %31

29:                                               ; preds = %25
  store i32 %26, ptr %3, align 4
  %30 = tail call i64 @strlcpy(ptr noundef nonnull dereferenceable(1) @identify_system_timezone.resultbuf, ptr noundef nonnull dereferenceable(1) %1, i64 noundef 256) #13
  br label %.sink.split

31:                                               ; preds = %25
  %32 = icmp eq i32 %26, %27
  br i1 %32, label %33, label %.sink.split

33:                                               ; preds = %31
  %34 = tail call i32 @strcmp(ptr noundef nonnull readonly dereferenceable(1) %1, ptr noundef nonnull dereferenceable(4) @.str.13) #14
  %35 = icmp eq i32 %34, 0
  br i1 %35, label %zone_name_pref.exit, label %36

36:                                               ; preds = %33
  %37 = tail call i32 @strcmp(ptr noundef nonnull readonly dereferenceable(1) %1, ptr noundef nonnull dereferenceable(8) @.str.14) #14
  %38 = icmp eq i32 %37, 0
  br i1 %38, label %zone_name_pref.exit, label %39

39:                                               ; preds = %36
  %40 = tail call i32 @strcmp(ptr noundef nonnull readonly dereferenceable(1) %1, ptr noundef nonnull dereferenceable(10) @.str.15) #14
  %41 = icmp eq i32 %40, 0
  br i1 %41, label %zone_name_pref.exit, label %42

42:                                               ; preds = %39
  %43 = tail call i32 @strcmp(ptr noundef nonnull readonly dereferenceable(1) %1, ptr noundef nonnull dereferenceable(11) @.str.16) #14
  %44 = icmp eq i32 %43, 0
  %spec.select.i = select i1 %44, i32 -50, i32 0
  br label %zone_name_pref.exit

zone_name_pref.exit:                              ; preds = %33, %36, %39, %42
  %.0.i = phi i32 [ 50, %33 ], [ 40, %36 ], [ -50, %39 ], [ %spec.select.i, %42 ]
  %lhsv = load i32, ptr @identify_system_timezone.resultbuf, align 16
  %.not2 = icmp eq i32 %lhsv, 4412501
  br i1 %.not2, label %zone_name_pref.exit56, label %45

45:                                               ; preds = %zone_name_pref.exit
  %lhsv3 = load i64, ptr @identify_system_timezone.resultbuf, align 16
  %.not5 = icmp eq i64 %lhsv3, 18951548283614277
  br i1 %.not5, label %zone_name_pref.exit56, label %46

46:                                               ; preds = %45
  %bcmp = tail call i32 @bcmp(ptr noundef nonnull dereferenceable(10) @identify_system_timezone.resultbuf, ptr noundef nonnull dereferenceable(10) @.str.15, i64 10)
  %47 = icmp eq i32 %bcmp, 0
  br i1 %47, label %zone_name_pref.exit56, label %48

48:                                               ; preds = %46
  %bcmp6 = tail call i32 @bcmp(ptr noundef nonnull dereferenceable(11) @identify_system_timezone.resultbuf, ptr noundef nonnull dereferenceable(11) @.str.16, i64 11)
  %49 = icmp eq i32 %bcmp6, 0
  %spec.select.i54 = select i1 %49, i32 -50, i32 0
  br label %zone_name_pref.exit56

zone_name_pref.exit56:                            ; preds = %zone_name_pref.exit, %45, %46, %48
  %.0.i55 = phi i32 [ 50, %zone_name_pref.exit ], [ 40, %45 ], [ -50, %46 ], [ %spec.select.i54, %48 ]
  %50 = icmp sgt i32 %.0.i, %.0.i55
  br i1 %50, label %62, label %51

51:                                               ; preds = %zone_name_pref.exit56
  %52 = icmp eq i32 %.0.i, %.0.i55
  br i1 %52, label %53, label %.sink.split

53:                                               ; preds = %51
  %54 = tail call i64 @strlen(ptr noundef nonnull dereferenceable(1) %1) #14
  %55 = tail call i64 @strlen(ptr noundef nonnull dereferenceable(1) @identify_system_timezone.resultbuf) #14
  %56 = icmp ult i64 %54, %55
  br i1 %56, label %62, label %57

57:                                               ; preds = %53
  %58 = icmp eq i64 %54, %55
  br i1 %58, label %59, label %.sink.split

59:                                               ; preds = %57
  %60 = tail call i32 @strcmp(ptr noundef nonnull dereferenceable(1) %1, ptr noundef nonnull dereferenceable(1) @identify_system_timezone.resultbuf) #14
  %61 = icmp slt i32 %60, 0
  br i1 %61, label %62, label %.sink.split

62:                                               ; preds = %59, %53, %zone_name_pref.exit56
  %63 = tail call i64 @strlcpy(ptr noundef nonnull dereferenceable(1) @identify_system_timezone.resultbuf, ptr noundef nonnull dereferenceable(1) %1, i64 noundef 256) #13
  br label %.sink.split

.sink.split:                                      ; preds = %24, %51, %57, %59, %62, %31, %29, %17
  store i8 0, ptr %10, align 1
  br label %64

64:                                               ; preds = %.sink.split, %13
  call void @llvm.lifetime.end.p0(i64 144, ptr nonnull %5) #13
  %65 = getelementptr inbounds nuw i8, ptr %.08, i64 8
  %66 = load ptr, ptr %65, align 8
  %.not51 = icmp eq ptr %66, null
  br i1 %.not51, label %._crit_edge, label %13, !llvm.loop !8

._crit_edge:                                      ; preds = %64, %.preheader
  tail call void @pgfnames_cleanup(ptr noundef nonnull %7) #13
  br label %67

67:                                               ; preds = %4, %._crit_edge
  ret void
}